; Function Attrs: nounwind uwtable
define internal noundef i32 @math_floor(ptr noundef %0) #0 {
  %2 = tail call i32 @lua_isinteger(ptr noundef %0, i32 noundef 1) #6
  %.not = icmp eq i32 %2, 0
  br i1 %.not, label %4, label %3

3:                                                ; preds = %1
  tail call void @lua_settop(ptr noundef %0, i32 noundef 1) #6
  br label %pushnumint.exit

4:                                                ; preds = %1
  %5 = tail call double @luaL_checknumber(ptr noundef %0, i32 noundef 1) #6
  %6 = tail call double @llvm.floor.f64(double %5)
  %7 = fcmp oge double %6, 0xC3E0000000000000
  %8 = fcmp olt double %6, 0x43E0000000000000
  %or.cond.i = and i1 %7, %8
  br i1 %or.cond.i, label %9, label %11

9:                                                ; preds = %4
  %10 = fptosi double %6 to i64
  tail call void @lua_pushinteger(ptr noundef %0, i64 noundef %10) #6
  br label %pushnumint.exit

11:                                               ; preds = %4
  tail call void @lua_pushnumber(ptr noundef %0, double noundef %6) #6
  br label %pushnumint.exit

pushnumint.exit:                                  ; preds = %11, %9, %3
  ret i32 1
}